target datalayout = "e-m:e-p270:32:32-p271:32:32-p272:64:64-i64:64-i128:128-f80:128-n8:16:32:64-S128"
target triple = "x86_64-pc-linux-gnu"

%struct.Curl_addrinfo = type { i32, i32, i32, i32, i32, ptr, ptr, ptr }
%struct.Curl_sockaddr_ex = type { i32, i32, i32, i32, %union.anon }
%union.anon = type { %struct.Curl_sockaddr_storage }
%struct.Curl_sockaddr_storage = type { %union.anon.0 }
%union.anon.0 = type { %struct.sockaddr_storage }
%struct.sockaddr_storage = type { i16, [118 x i8], i64 }
%struct.Curl_easy = type { i32, i64, i64, ptr, %struct.Curl_llist_node, %struct.Curl_llist_node, i32, i32, %struct.Curl_message, %struct.easy_pollset, %struct.Names, ptr, ptr, ptr, ptr, %struct.SingleRequest, %struct.UserDefined, ptr, ptr, ptr, %struct.Progress, %struct.UrlState, ptr, %struct.PureInfo, %struct.curl_tlssessioninfo }
%struct.Curl_llist_node = type { ptr, ptr, ptr, ptr }
%struct.Curl_message = type { %struct.Curl_llist_node, %struct.CURLMsg }
%struct.CURLMsg = type { i32, ptr, %union.anon.3 }
%union.anon.3 = type { ptr }
%struct.easy_pollset = type { [5 x i32], i32, [5 x i8] }
%struct.Names = type { ptr, i32 }
%struct.SingleRequest = type <{ i64, i64, i64, i64, %struct.curltime, i32, i32, i32, i32, i64, i32, i32, i8, i8, [2 x i8], i32, ptr, ptr, %struct.bufq, i64, i64, ptr, ptr, %union.anon.4, ptr, i8, i32, [3 x i8] }>
%struct.curltime = type { i64, i32 }
%struct.bufq = type { ptr, ptr, ptr, ptr, i64, i64, i64, i32 }
%union.anon.4 = type { ptr }
%struct.UserDefined = type <{ ptr, ptr, ptr, ptr, ptr, ptr, i64, i64, i64, ptr, ptr, i64, ptr, ptr, ptr, ptr, ptr, ptr, ptr, ptr, ptr, ptr, ptr, ptr, ptr, ptr, ptr, ptr, ptr, ptr, ptr, ptr, ptr, ptr, ptr, i64, i64, i64, i64, i64, i64, i64, i64, i64, ptr, ptr, %struct.curl_mimepart, ptr, ptr, ptr, i64, %struct.ssl_config_data, %struct.ssl_config_data, ptr, i16, i8, i8, %struct.ssl_general_config, i32, i32, i32, [4 x i8], ptr, ptr, i64, i32, i8, i8, i8, i8, ptr, ptr, ptr, i32, [4 x i8], [74 x ptr], [8 x ptr], i32, i32, i32, [4 x i8], ptr, i32, [4 x i8], ptr, ptr, ptr, ptr, ptr, i32, i32, i32, i32, i32, i32, i32, i32, i64, ptr, ptr, i64, ptr, i64, ptr, ptr, ptr, ptr, i32, i16, i16, i16, i8, i8, i8, i8, i8, i8, i8, i8, i64, [6 x i8] }>
%struct.curl_mimepart = type { ptr, ptr, i32, i32, ptr, ptr, ptr, ptr, ptr, ptr, ptr, ptr, ptr, ptr, ptr, i64, %struct.mime_state, ptr, %struct.mime_encoder_state, i64 }
%struct.mime_state = type { i32, ptr, i64 }
%struct.mime_encoder_state = type { i64, i64, i64, [256 x i8] }
%struct.ssl_config_data = type { %struct.ssl_primary_config, i64, ptr, ptr, ptr, ptr, ptr, ptr, ptr, i16 }
%struct.ssl_primary_config = type { ptr, ptr, ptr, ptr, ptr, ptr, ptr, ptr, ptr, ptr, ptr, ptr, ptr, ptr, i8, i32, i8, i8 }
%struct.ssl_general_config = type { i32 }
%struct.Progress = type { i64, %struct.pgrs_dir, %struct.pgrs_dir, i64, i64, i32, i32, i64, i64, i64, i64, i64, i64, i64, i64, i64, %struct.curltime, %struct.curltime, %struct.curltime, %struct.curltime, %struct.curltime, [6 x i64], [6 x %struct.curltime], i32, i8 }
%struct.pgrs_dir = type { i64, i64, i64, %struct.pgrs_measure }
%struct.pgrs_measure = type { %struct.curltime, i64 }
%struct.UrlState = type { %struct.curltime, i64, i64, %struct.dynbuf, ptr, i64, ptr, i32, i32, i32, ptr, i32, i64, i32, ptr, %struct.digestdata, %struct.digestdata, %struct.auth, %struct.auth, %struct.Curl_async, ptr, i8, %struct.curltime, %struct.Curl_tree, %struct.Curl_llist, [15 x %struct.time_node], ptr, ptr, i64, i64, i64, i64, [32 x i8], i64, ptr, ptr, ptr, %struct.urlpieces, ptr, ptr, ptr, ptr, ptr, i64, %struct.dynbuf, %struct.Curl_llist, [2 x %struct.curl_header], ptr, i32, ptr, ptr, %struct.store_netrc, %struct.dynamically_allocated_data, i8, i8, i8, i8, i32 }
%struct.digestdata = type { ptr, ptr, ptr, ptr, ptr, ptr, i32, i8, i8 }
%struct.auth = type { i64, i64, i64, i8 }
%struct.Curl_async = type { ptr, ptr, ptr, ptr, i32, i32, i8 }
%struct.Curl_tree = type { ptr, ptr, ptr, ptr, %struct.curltime, ptr }
%struct.time_node = type { %struct.Curl_llist_node, %struct.curltime, i32 }
%struct.urlpieces = type { ptr, ptr, ptr, ptr, ptr, ptr, ptr, ptr }
%struct.dynbuf = type { ptr, i64, i64, i64 }
%struct.Curl_llist = type { ptr, ptr, ptr, i64 }
%struct.curl_header = type { ptr, ptr, i64, i64, i32, ptr }
%struct.store_netrc = type { %struct.dynbuf, ptr, i8 }
%struct.dynamically_allocated_data = type { ptr, ptr, ptr, ptr, ptr, ptr, ptr, ptr, ptr, ptr, ptr, ptr, ptr, ptr }
%struct.PureInfo = type { i32, i32, i32, i64, i64, i64, i64, i64, i64, i64, ptr, ptr, i64, i32, %struct.ip_quadruple, i32, ptr, i32, %struct.curl_certinfo, i32, i8 }
%struct.ip_quadruple = type { [46 x i8], [46 x i8], i32, i32 }
%struct.curl_certinfo = type { i32, ptr }
%struct.curl_tlssessioninfo = type { i32, ptr }
%struct.connectdata = type { %struct.Curl_llist_node, ptr, ptr, i64, ptr, i64, ptr, ptr, %struct.hostname, ptr, ptr, %struct.hostname, %struct.proxy_info, %struct.proxy_info, %struct.ip_quadruple, %struct.ip_quadruple, ptr, ptr, ptr, ptr, ptr, %struct.curltime, %struct.curltime, %struct.curltime, [2 x i32], [2 x ptr], [2 x ptr], [2 x ptr], %struct.anon, %struct.easy_pollset, %struct.ssl_primary_config, %struct.ssl_primary_config, %struct.ConnectBits, ptr, ptr, %struct.curltime, i32, i32, %struct.Curl_llist, i32, i32, %struct.ntlmdata, %struct.ntlmdata, %union.anon.2, ptr, ptr, i16, i32, i32, i32, i32, i16, i16, i8, i8, i8, i8, i8, i8, i8 }
%struct.hostname = type { ptr, ptr, ptr, ptr }
%struct.proxy_info = type { %struct.hostname, i32, i8, ptr, ptr }
%struct.anon = type { [2 x %struct.curltime], i32 }
%struct.ConnectBits = type { i64 }
%struct.ntlmdata = type { i32, [8 x i8], i32, ptr }
%union.anon.2 = type { %struct.ftp_conn }
%struct.ftp_conn = type { %struct.pingpong, ptr, ptr, ptr, ptr, ptr, ptr, ptr, i8, i64, ptr, i64, i32, i32, i32, i32, i32, i16, i8, i8, i8, i8, i8 }
%struct.pingpong = type { i64, i8, ptr, i64, i64, %struct.curltime, i64, %struct.dynbuf, %struct.dynbuf, i64, i64, ptr, ptr }
%struct.sockaddr_in6 = type { i16, i16, i32, %struct.in6_addr, i32 }
%struct.in6_addr = type { %union.anon.1 }
%union.anon.1 = type { [4 x i32] }

; Function Attrs: nounwind uwtable
define internal i32 @socket_open(ptr noundef %0, ptr noundef %1, ptr noundef %2) #0 {
  %4 = alloca i32, align 4
  %5 = alloca ptr, align 8
  %6 = alloca ptr, align 8
  %7 = alloca ptr, align 8
  %8 = alloca ptr, align 8
  store ptr %0, ptr %5, align 8, !tbaa !23
  store ptr %1, ptr %6, align 8, !tbaa !3
  store ptr %2, ptr %7, align 8, !tbaa !25
  br label %9

9:                                                ; preds = %3
  br label %10

10:                                               ; preds = %9
  br label %11

11:                                               ; preds = %10
  br label %12

12:                                               ; preds = %11
  %13 = load ptr, ptr %5, align 8, !tbaa !23
  %14 = getelementptr inbounds nuw %struct.Curl_easy, ptr %13, i32 0, i32 16
  %15 = getelementptr inbounds nuw %struct.UserDefined, ptr %14, i32 0, i32 22
  %16 = load ptr, ptr %15, align 8, !tbaa !27
  %17 = icmp ne ptr %16, null
  br i1 %17, label %18, label %32

18:                                               ; preds = %12
  %19 = load ptr, ptr %5, align 8, !tbaa !23
  call void @Curl_set_in_callback(ptr noundef %19, i1 noundef zeroext true)
  %20 = load ptr, ptr %5, align 8, !tbaa !23
  %21 = getelementptr inbounds nuw %struct.Curl_easy, ptr %20, i32 0, i32 16
  %22 = getelementptr inbounds nuw %struct.UserDefined, ptr %21, i32 0, i32 22
  %23 = load ptr, ptr %22, align 8, !tbaa !27
  %24 = load ptr, ptr %5, align 8, !tbaa !23
  %25 = getelementptr inbounds nuw %struct.Curl_easy, ptr %24, i32 0, i32 16
  %26 = getelementptr inbounds nuw %struct.UserDefined, ptr %25, i32 0, i32 23
  %27 = load ptr, ptr %26, align 8, !tbaa !94
  %28 = load ptr, ptr %6, align 8, !tbaa !3
  %29 = call i32 %23(ptr noundef %27, i32 noundef 0, ptr noundef %28)
  %30 = load ptr, ptr %7, align 8, !tbaa !25
  store i32 %29, ptr %30, align 4, !tbaa !10
  %31 = load ptr, ptr %5, align 8, !tbaa !23
  call void @Curl_set_in_callback(ptr noundef %31, i1 noundef zeroext false)
  br label %44

32:                                               ; preds = %12
  %33 = load ptr, ptr %6, align 8, !tbaa !3
  %34 = getelementptr inbounds nuw %struct.Curl_sockaddr_ex, ptr %33, i32 0, i32 0
  %35 = load i32, ptr %34, align 8, !tbaa !16
  %36 = load ptr, ptr %6, align 8, !tbaa !3
  %37 = getelementptr inbounds nuw %struct.Curl_sockaddr_ex, ptr %36, i32 0, i32 1
  %38 = load i32, ptr %37, align 4, !tbaa !18
  %39 = load ptr, ptr %6, align 8, !tbaa !3
  %40 = getelementptr inbounds nuw %struct.Curl_sockaddr_ex, ptr %39, i32 0, i32 2
  %41 = load i32, ptr %40, align 8, !tbaa !19
  %42 = call i32 @socket(i32 noundef %35, i32 noundef %38, i32 noundef %41) #9
  %43 = load ptr, ptr %7, align 8, !tbaa !25
  store i32 %42, ptr %43, align 4, !tbaa !10
  br label %44

44:                                               ; preds = %32, %18
  %45 = load ptr, ptr %7, align 8, !tbaa !25
  %46 = load i32, ptr %45, align 4, !tbaa !10
  %47 = icmp eq i32 %46, -1
  br i1 %47, label %48, label %49

48:                                               ; preds = %44
  store i32 7, ptr %4, align 4
  br label %72

49:                                               ; preds = %44
  %50 = load ptr, ptr %5, align 8, !tbaa !23
  %51 = getelementptr inbounds nuw %struct.Curl_easy, ptr %50, i32 0, i32 3
  %52 = load ptr, ptr %51, align 8, !tbaa !95
  %53 = getelementptr inbounds nuw %struct.connectdata, ptr %52, i32 0, i32 50
  %54 = load i32, ptr %53, align 8, !tbaa !96
  %55 = icmp ne i32 %54, 0
  br i1 %55, label %56, label %71

56:                                               ; preds = %49
  %57 = load ptr, ptr %6, align 8, !tbaa !3
  %58 = getelementptr inbounds nuw %struct.Curl_sockaddr_ex, ptr %57, i32 0, i32 0
  %59 = load i32, ptr %58, align 8, !tbaa !16
  %60 = icmp eq i32 %59, 10
  br i1 %60, label %61, label %71

61:                                               ; preds = %56
  call void @llvm.lifetime.start.p0(i64 8, ptr %8) #9
  %62 = load ptr, ptr %6, align 8, !tbaa !3
  %63 = getelementptr inbounds nuw %struct.Curl_sockaddr_ex, ptr %62, i32 0, i32 4
  store ptr %63, ptr %8, align 8, !tbaa !104
  %64 = load ptr, ptr %5, align 8, !tbaa !23
  %65 = getelementptr inbounds nuw %struct.Curl_easy, ptr %64, i32 0, i32 3
  %66 = load ptr, ptr %65, align 8, !tbaa !95
  %67 = getelementptr inbounds nuw %struct.connectdata, ptr %66, i32 0, i32 50
  %68 = load i32, ptr %67, align 8, !tbaa !96
  %69 = load ptr, ptr %8, align 8, !tbaa !104
  %70 = getelementptr inbounds nuw %struct.sockaddr_in6, ptr %69, i32 0, i32 4
  store i32 %68, ptr %70, align 4, !tbaa !106
  call void @llvm.lifetime.end.p0(i64 8, ptr %8) #9
  br label %71

71:                                               ; preds = %61, %56, %49
  store i32 0, ptr %4, align 4
  br label %72

72:                                               ; preds = %71, %48
  %73 = load i32, ptr %4, align 4
  ret i32 %73
}

; Function Attrs: nounwind uwtable
define hidden i32 @Curl_sock_assign_addr(ptr noundef %0, ptr noundef %1, i32 noundef %2) #0 {
  %4 = alloca i32, align 4
  %5 = alloca ptr, align 8
  %6 = alloca ptr, align 8
  %7 = alloca i32, align 4
  store ptr %0, ptr %5, align 8, !tbaa !3
  store ptr %1, ptr %6, align 8, !tbaa !8
  store i32 %2, ptr %7, align 4, !tbaa !10
  %8 = load ptr, ptr %6, align 8, !tbaa !8
  %9 = getelementptr inbounds nuw %struct.Curl_addrinfo, ptr %8, i32 0, i32 1
  %10 = load i32, ptr %9, align 4, !tbaa !12
  %11 = load ptr, ptr %5, align 8, !tbaa !3
  %12 = getelementptr inbounds nuw %struct.Curl_sockaddr_ex, ptr %11, i32 0, i32 0
  store i32 %10, ptr %12, align 8, !tbaa !16
  %13 = load i32, ptr %7, align 4, !tbaa !10
  switch i32 %13, label %24 [
    i32 3, label %14
    i32 6, label %19
  ]

14:                                               ; preds = %3
  %15 = load ptr, ptr %5, align 8, !tbaa !3
  %16 = getelementptr inbounds nuw %struct.Curl_sockaddr_ex, ptr %15, i32 0, i32 1
  store i32 1, ptr %16, align 4, !tbaa !18
  %17 = load ptr, ptr %5, align 8, !tbaa !3
  %18 = getelementptr inbounds nuw %struct.Curl_sockaddr_ex, ptr %17, i32 0, i32 2
  store i32 6, ptr %18, align 8, !tbaa !19
  br label %29

19:                                               ; preds = %3
  %20 = load ptr, ptr %5, align 8, !tbaa !3
  %21 = getelementptr inbounds nuw %struct.Curl_sockaddr_ex, ptr %20, i32 0, i32 1
  store i32 1, ptr %21, align 4, !tbaa !18
  %22 = load ptr, ptr %5, align 8, !tbaa !3
  %23 = getelementptr inbounds nuw %struct.Curl_sockaddr_ex, ptr %22, i32 0, i32 2
  store i32 0, ptr %23, align 8, !tbaa !19
  br label %29

24:                                               ; preds = %3
  %25 = load ptr, ptr %5, align 8, !tbaa !3
  %26 = getelementptr inbounds nuw %struct.Curl_sockaddr_ex, ptr %25, i32 0, i32 1
  store i32 2, ptr %26, align 4, !tbaa !18
  %27 = load ptr, ptr %5, align 8, !tbaa !3
  %28 = getelementptr inbounds nuw %struct.Curl_sockaddr_ex, ptr %27, i32 0, i32 2
  store i32 17, ptr %28, align 8, !tbaa !19
  br label %29

29:                                               ; preds = %24, %19, %14
  %30 = load ptr, ptr %6, align 8, !tbaa !8
  %31 = getelementptr inbounds nuw %struct.Curl_addrinfo, ptr %30, i32 0, i32 4
  %32 = load i32, ptr %31, align 8, !tbaa !20
  %33 = load ptr, ptr %5, align 8, !tbaa !3
  %34 = getelementptr inbounds nuw %struct.Curl_sockaddr_ex, ptr %33, i32 0, i32 3
  store i32 %32, ptr %34, align 4, !tbaa !21
  %35 = load ptr, ptr %5, align 8, !tbaa !3
  %36 = getelementptr inbounds nuw %struct.Curl_sockaddr_ex, ptr %35, i32 0, i32 3
  %37 = load i32, ptr %36, align 4, !tbaa !21
  %38 = zext i32 %37 to i64
  %39 = icmp ugt i64 %38, 128
  br i1 %39, label %40, label %43

40:                                               ; preds = %29
  br label %41

41:                                               ; preds = %40
  br label %42

42:                                               ; preds = %41
  store i32 100, ptr %4, align 4
  br label %53

43:                                               ; preds = %29
  %44 = load ptr, ptr %5, align 8, !tbaa !3
  %45 = getelementptr inbounds nuw %struct.Curl_sockaddr_ex, ptr %44, i32 0, i32 4
  %46 = load ptr, ptr %6, align 8, !tbaa !8
  %47 = getelementptr inbounds nuw %struct.Curl_addrinfo, ptr %46, i32 0, i32 6
  %48 = load ptr, ptr %47, align 8, !tbaa !22
  %49 = load ptr, ptr %5, align 8, !tbaa !3
  %50 = getelementptr inbounds nuw %struct.Curl_sockaddr_ex, ptr %49, i32 0, i32 3
  %51 = load i32, ptr %50, align 4, !tbaa !21
  %52 = zext i32 %51 to i64
  call void @llvm.memcpy.p0.p0.i64(ptr align 8 %45, ptr align 2 %48, i64 %52, i1 false)
  store i32 0, ptr %4, align 4
  br label %53

53:                                               ; preds = %43, %42
  %54 = load i32, ptr %4, align 4
  ret i32 %54
}

; Function Attrs: nounwind uwtable
define hidden i32 @Curl_socket_open(ptr noundef %0, ptr noundef %1, ptr noundef %2, i32 noundef %3, ptr noundef %4) #0 {
  %6 = alloca i32, align 4
  %7 = alloca ptr, align 8
  %8 = alloca ptr, align 8
  %9 = alloca ptr, align 8
  %10 = alloca i32, align 4
  %11 = alloca ptr, align 8
  %12 = alloca %struct.Curl_sockaddr_ex, align 8
  %13 = alloca i32, align 4
  %14 = alloca i32, align 4
  store ptr %0, ptr %7, align 8, !tbaa !23
  store ptr %1, ptr %8, align 8, !tbaa !8
  store ptr %2, ptr %9, align 8, !tbaa !3
  store i32 %3, ptr %10, align 4, !tbaa !10
  store ptr %4, ptr %11, align 8, !tbaa !25
  call void @llvm.lifetime.start.p0(i64 144, ptr %12) #9
  call void @llvm.lifetime.start.p0(i64 4, ptr %13) #9
  %15 = load ptr, ptr %9, align 8, !tbaa !3
  %16 = icmp ne ptr %15, null
  br i1 %16, label %18, label %17

17:                                               ; preds = %5
  store ptr %12, ptr %9, align 8, !tbaa !3
  br label %18

18:                                               ; preds = %17, %5
  %19 = load ptr, ptr %9, align 8, !tbaa !3
  %20 = load ptr, ptr %8, align 8, !tbaa !8
  %21 = load i32, ptr %10, align 4, !tbaa !10
  %22 = call i32 @Curl_sock_assign_addr(ptr noundef %19, ptr noundef %20, i32 noundef %21)
  store i32 %22, ptr %13, align 4, !tbaa !10
  %23 = load i32, ptr %13, align 4, !tbaa !10
  %24 = icmp ne i32 %23, 0
  br i1 %24, label %25, label %27

25:                                               ; preds = %18
  %26 = load i32, ptr %13, align 4, !tbaa !10
  store i32 %26, ptr %6, align 4
  store i32 1, ptr %14, align 4
  br label %32

27:                                               ; preds = %18
  %28 = load ptr, ptr %7, align 8, !tbaa !23
  %29 = load ptr, ptr %9, align 8, !tbaa !3
  %30 = load ptr, ptr %11, align 8, !tbaa !25
  %31 = call i32 @socket_open(ptr noundef %28, ptr noundef %29, ptr noundef %30)
  store i32 %31, ptr %6, align 4
  store i32 1, ptr %14, align 4
  br label %32

32:                                               ; preds = %27, %25
  call void @llvm.lifetime.end.p0(i64 4, ptr %13) #9
  call void @llvm.lifetime.end.p0(i64 144, ptr %12) #9
  %33 = load i32, ptr %6, align 4
  ret i32 %33
}