; Function Attrs: nounwind uwtable
define hidden range(i32 0, 101) i32 @Curl_socket_open(ptr noundef %0, ptr noundef readonly captures(none) %1, ptr noundef %2, i32 noundef %3, ptr noundef captures(none) %4) local_unnamed_addr #2 {
  %6 = alloca %struct.Curl_sockaddr_ex, align 8
  call void @llvm.lifetime.start.p0(i64 144, ptr nonnull %6) #13
  %.not = icmp eq ptr %2, null
  %spec.store.select = select i1 %.not, ptr %6, ptr %2
  %7 = getelementptr inbounds nuw i8, ptr %1, i64 4
  %8 = load i32, ptr %7, align 4, !tbaa !3
  store i32 %8, ptr %spec.store.select, align 8, !tbaa !12
  %spec.store.select.sroa.sel.v.sroa.sel.v.sroa.sel.v = select i1 %.not, ptr %6, ptr %2
  %spec.store.select.sroa.sel.v.sroa.sel.v.sroa.sel = getelementptr inbounds nuw i8, ptr %spec.store.select.sroa.sel.v.sroa.sel.v.sroa.sel.v, i64 4
  %spec.store.select.sroa.sel15.v.sroa.sel.v.sroa.sel.v = select i1 %.not, ptr %6, ptr %2
  %spec.store.select.sroa.sel15.v.sroa.sel.v.sroa.sel = getelementptr inbounds nuw i8, ptr %spec.store.select.sroa.sel15.v.sroa.sel.v.sroa.sel.v, i64 8
  switch i32 %3, label %10 [
    i32 3, label %11
    i32 6, label %9
  ]

9:                                                ; preds = %5
  br label %11

10:                                               ; preds = %5
  br label %11

11:                                               ; preds = %10, %9, %5
  %.sink16.i = phi i32 [ 2, %10 ], [ 1, %9 ], [ 1, %5 ]
  %.sink.i = phi i32 [ 17, %10 ], [ 0, %9 ], [ 6, %5 ]
  store i32 %.sink16.i, ptr %spec.store.select.sroa.sel.v.sroa.sel.v.sroa.sel, align 4, !tbaa !14
  store i32 %.sink.i, ptr %spec.store.select.sroa.sel15.v.sroa.sel.v.sroa.sel, align 8, !tbaa !15
  %12 = getelementptr inbounds nuw i8, ptr %1, i64 16
  %13 = load i32, ptr %12, align 8, !tbaa !16
  %spec.store.select.sroa.sel18.v.sroa.sel.v.sroa.sel.v = select i1 %.not, ptr %6, ptr %2
  %spec.store.select.sroa.sel18.v.sroa.sel.v.sroa.sel = getelementptr inbounds nuw i8, ptr %spec.store.select.sroa.sel18.v.sroa.sel.v.sroa.sel.v, i64 12
  store i32 %13, ptr %spec.store.select.sroa.sel18.v.sroa.sel.v.sroa.sel, align 4, !tbaa !17
  %14 = icmp ugt i32 %13, 128
  br i1 %14, label %Curl_sock_assign_addr.exit, label %15

15:                                               ; preds = %11
  %16 = zext nneg i32 %13 to i64
  %spec.store.select.sroa.sel21.v.sroa.sel.v.sroa.sel.v = select i1 %.not, ptr %6, ptr %2
  %spec.store.select.sroa.sel21.v.sroa.sel.v.sroa.sel = getelementptr inbounds nuw i8, ptr %spec.store.select.sroa.sel21.v.sroa.sel.v.sroa.sel.v, i64 16
  %17 = getelementptr inbounds nuw i8, ptr %1, i64 32
  %18 = load ptr, ptr %17, align 8, !tbaa !18
  call void @llvm.memcpy.p0.p0.i64(ptr nonnull align 8 %spec.store.select.sroa.sel21.v.sroa.sel.v.sroa.sel, ptr align 2 %18, i64 %16, i1 false)
  %19 = getelementptr inbounds nuw i8, ptr %0, i64 640
  %20 = load ptr, ptr %19, align 8, !tbaa !19
  %.not.i = icmp eq ptr %20, null
  br i1 %.not.i, label %26, label %21

21:                                               ; preds = %15
  tail call void @Curl_set_in_callback(ptr noundef nonnull %0, i1 noundef zeroext true) #13
  %22 = load ptr, ptr %19, align 8, !tbaa !19
  %23 = getelementptr inbounds nuw i8, ptr %0, i64 648
  %24 = load ptr, ptr %23, align 8, !tbaa !86
  %25 = call i32 %22(ptr noundef %24, i32 noundef 0, ptr noundef nonnull %spec.store.select) #13
  store i32 %25, ptr %4, align 4, !tbaa !87
  call void @Curl_set_in_callback(ptr noundef nonnull %0, i1 noundef zeroext false) #13
  %.pr.i = load i32, ptr %4, align 4, !tbaa !87
  br label %28

26:                                               ; preds = %15
  %27 = tail call i32 @socket(i32 noundef %8, i32 noundef %.sink16.i, i32 noundef %.sink.i) #13
  store i32 %27, ptr %4, align 4, !tbaa !87
  br label %28

28:                                               ; preds = %26, %21
  %29 = phi i32 [ %27, %26 ], [ %.pr.i, %21 ]
  %30 = icmp eq i32 %29, -1
  br i1 %30, label %Curl_sock_assign_addr.exit, label %31

31:                                               ; preds = %28
  %32 = getelementptr inbounds nuw i8, ptr %0, i64 24
  %33 = load ptr, ptr %32, align 8, !tbaa !88
  %34 = getelementptr inbounds nuw i8, ptr %33, i64 1400
  %35 = load i32, ptr %34, align 8, !tbaa !89
  %.not18.i = icmp eq i32 %35, 0
  br i1 %.not18.i, label %Curl_sock_assign_addr.exit, label %36

36:                                               ; preds = %31
  %37 = load i32, ptr %spec.store.select, align 8, !tbaa !12
  %38 = icmp eq i32 %37, 10
  br i1 %38, label %39, label %Curl_sock_assign_addr.exit

39:                                               ; preds = %36
  %spec.store.select.sroa.sel24.v.sroa.sel.v.sroa.sel.v = select i1 %.not, ptr %6, ptr %2
  %spec.store.select.sroa.sel24.v.sroa.sel.v.sroa.sel = getelementptr inbounds nuw i8, ptr %spec.store.select.sroa.sel24.v.sroa.sel.v.sroa.sel.v, i64 40
  store i32 %35, ptr %spec.store.select.sroa.sel24.v.sroa.sel.v.sroa.sel, align 4, !tbaa !98
  br label %Curl_sock_assign_addr.exit

Curl_sock_assign_addr.exit:                       ; preds = %39, %36, %31, %28, %11
  %.0 = phi i32 [ 100, %11 ], [ 7, %28 ], [ 0, %39 ], [ 0, %36 ], [ 0, %31 ]
  call void @llvm.lifetime.end.p0(i64 144, ptr nonnull %6) #13
  ret i32 %.0
}